target datalayout = "e-m:e-p270:32:32-p271:32:32-p272:64:64-i64:64-i128:128-f80:128-n8:16:32:64-S128"
target triple = "x86_64-pc-linux-gnu"

%struct.AF_StyleMetricsRec_ = type { ptr, %struct.AF_ScalerRec_, i8, ptr }
%struct.AF_ScalerRec_ = type { ptr, i64, i64, i64, i64, i32, i32 }
%struct.AF_WidthRec_ = type { i64, i64, i64 }
%struct.AF_LatinMetricsRec_ = type { %struct.AF_StyleMetricsRec_, i32, [2 x %struct.AF_LatinAxisRec_] }
%struct.AF_LatinAxisRec_ = type { i64, i64, i32, [16 x %struct.AF_WidthRec_], i64, i64, i8, i32, [8 x %struct.AF_LatinBlueRec_], i64, i64 }
%struct.AF_LatinBlueRec_ = type { %struct.AF_WidthRec_, %struct.AF_WidthRec_, i64, i64, i32 }

; Function Attrs: nounwind uwtable
define internal void @af_latin_get_standard_widths(ptr noundef %0, ptr noundef %1, ptr noundef %2) #0 {
  %4 = alloca ptr, align 8
  %5 = alloca ptr, align 8
  %6 = alloca ptr, align 8
  %7 = alloca ptr, align 8
  store ptr %0, ptr %4, align 8, !tbaa !3
  store ptr %1, ptr %5, align 8, !tbaa !44
  store ptr %2, ptr %6, align 8, !tbaa !44
  call void @llvm.lifetime.start.p0(i64 8, ptr %7) #10
  %8 = load ptr, ptr %4, align 8, !tbaa !3
  store ptr %8, ptr %7, align 8, !tbaa !71
  %9 = load ptr, ptr %5, align 8, !tbaa !44
  %10 = icmp ne ptr %9, null
  br i1 %10, label %11, label %18

11:                                               ; preds = %3
  %12 = load ptr, ptr %7, align 8, !tbaa !71
  %13 = getelementptr inbounds nuw %struct.AF_LatinMetricsRec_, ptr %12, i32 0, i32 2
  %14 = getelementptr inbounds [2 x %struct.AF_LatinAxisRec_], ptr %13, i64 0, i64 1
  %15 = getelementptr inbounds nuw %struct.AF_LatinAxisRec_, ptr %14, i32 0, i32 5
  %16 = load i64, ptr %15, align 8, !tbaa !81
  %17 = load ptr, ptr %5, align 8, !tbaa !44
  store i64 %16, ptr %17, align 8, !tbaa !42
  br label %18

18:                                               ; preds = %11, %3
  %19 = load ptr, ptr %6, align 8, !tbaa !44
  %20 = icmp ne ptr %19, null
  br i1 %20, label %21, label %28

21:                                               ; preds = %18
  %22 = load ptr, ptr %7, align 8, !tbaa !71
  %23 = getelementptr inbounds nuw %struct.AF_LatinMetricsRec_, ptr %22, i32 0, i32 2
  %24 = getelementptr inbounds [2 x %struct.AF_LatinAxisRec_], ptr %23, i64 0, i64 0
  %25 = getelementptr inbounds nuw %struct.AF_LatinAxisRec_, ptr %24, i32 0, i32 5
  %26 = load i64, ptr %25, align 8, !tbaa !81
  %27 = load ptr, ptr %6, align 8, !tbaa !44
  store i64 %26, ptr %27, align 8, !tbaa !42
  br label %28

28:                                               ; preds = %21, %18
  call void @llvm.lifetime.end.p0(i64 8, ptr %7) #10
  ret void
}