; Function Attrs: mustprogress nofree norecurse nosync nounwind willreturn memory(argmem: readwrite) uwtable
define internal void @af_latin_get_standard_widths(ptr noundef readonly captures(none) %0, ptr noundef writeonly %1, ptr noundef writeonly %2) #1 {
  %.not = icmp eq ptr %1, null
  br i1 %.not, label %7, label %4

4:                                                ; preds = %3
  %5 = getelementptr inbounds nuw i8, ptr %0, i64 1520
  %6 = load i64, ptr %5, align 8, !tbaa !152
  store i64 %6, ptr %1, align 8, !tbaa !60
  br label %7

7:                                                ; preds = %4, %3
  %.not8 = icmp eq ptr %2, null
  br i1 %.not8, label %11, label %8

8:                                                ; preds = %7
  %9 = getelementptr inbounds nuw i8, ptr %0, i64 496
  %10 = load i64, ptr %9, align 8, !tbaa !152
  store i64 %10, ptr %2, align 8, !tbaa !60
  br label %11

11:                                               ; preds = %8, %7
  ret void
}